; Function Attrs: nounwind uwtable
define internal fastcc zeroext i1 @_data_match_dict(ptr noundef nonnull %0, ptr noundef nonnull %1, i1 noundef zeroext %2) unnamed_addr #0 {
  %4 = alloca %struct.find_dict_match_t, align 8
  %5 = zext i1 %2 to i8
  call void @llvm.lifetime.start.p0(i64 24, ptr nonnull %4) #16
  store ptr %0, ptr %4, align 8
  %6 = getelementptr inbounds nuw i8, ptr %4, i64 8
  store ptr %1, ptr %6, align 8
  %7 = getelementptr inbounds nuw i8, ptr %4, i64 16
  store i8 %5, ptr %7, align 8
  %8 = getelementptr inbounds nuw i8, ptr %4, i64 17
  call void @llvm.memset.p0.i64(ptr noundef nonnull align 1 dereferenceable(7) %8, i8 0, i64 7, i1 false)
  %9 = getelementptr inbounds nuw i8, ptr %0, i64 4
  %10 = load i32, ptr %9, align 4
  %.not = icmp eq i32 %10, 65283
  br i1 %.not, label %11, label %26

11:                                               ; preds = %3
  %12 = getelementptr inbounds nuw i8, ptr %1, i64 4
  %13 = load i32, ptr %12, align 4
  %.not14 = icmp eq i32 %13, 65283
  br i1 %.not14, label %14, label %26

14:                                               ; preds = %11
  %15 = getelementptr inbounds nuw i8, ptr %0, i64 8
  %16 = load ptr, ptr %15, align 8
  %17 = getelementptr inbounds nuw i8, ptr %16, i64 8
  %18 = load i64, ptr %17, align 8
  %19 = getelementptr inbounds nuw i8, ptr %1, i64 8
  %20 = load ptr, ptr %19, align 8
  %21 = getelementptr inbounds nuw i8, ptr %20, i64 8
  %22 = load i64, ptr %21, align 8
  %.not15 = icmp eq i64 %18, %22
  br i1 %.not15, label %23, label %26

23:                                               ; preds = %14
  %24 = call i32 @data_dict_for_each_const(ptr noundef nonnull %0, ptr noundef nonnull @_find_dict_match, ptr noundef nonnull %4)
  %25 = icmp sgt i32 %24, -1
  br label %26

26:                                               ; preds = %14, %11, %3, %23
  %.0 = phi i1 [ %25, %23 ], [ false, %3 ], [ false, %11 ], [ false, %14 ]
  call void @llvm.lifetime.end.p0(i64 24, ptr nonnull %4) #16
  ret i1 %.0
}